target datalayout = "e-m:e-p270:32:32-p271:32:32-p272:64:64-i64:64-i128:128-f80:128-n8:16:32:64-S128"
target triple = "x86_64-pc-linux-gnu"

%"class.llvm::SmallVectorBase" = type { ptr, i32, i32 }
%"class.llvm::AnalysisUsage" = type <{ %"class.llvm::SmallVector.151", %"class.llvm::SmallVector.156", %"class.llvm::SmallVector.156", %"class.llvm::SmallVector.158", i8, [7 x i8] }>
%"class.llvm::SmallVector.151" = type { %"class.llvm::SmallVectorImpl.152", %"struct.llvm::SmallVectorStorage.155" }
%"class.llvm::SmallVectorImpl.152" = type { %"class.llvm::SmallVectorTemplateBase.153" }
%"class.llvm::SmallVectorTemplateBase.153" = type { %"class.llvm::SmallVectorTemplateCommon.154" }
%"class.llvm::SmallVectorTemplateCommon.154" = type { %"class.llvm::SmallVectorBase" }
%"struct.llvm::SmallVectorStorage.155" = type { [64 x i8] }
%"class.llvm::SmallVector.156" = type { %"class.llvm::SmallVectorImpl.152", %"struct.llvm::SmallVectorStorage.157" }
%"struct.llvm::SmallVectorStorage.157" = type { [16 x i8] }
%"class.llvm::SmallVector.158" = type { %"class.llvm::SmallVectorImpl.152" }

@_ZN4llvm17MachineLoopInfoIDE = external constant ptr, align 8
@_ZN4llvm19MachineDominatorsIDE = external constant ptr, align 8
@_ZN4llvm20AAResultsWrapperPass2IDE = external global i8, align 1
@_ZN4llvm24LiveVariablesWrapperPass2IDE = external global i8, align 1
@_ZN4llvm22SlotIndexesWrapperPass2IDE = external global i8, align 1
@_ZN4llvm24LiveIntervalsWrapperPass2IDE = external global i8, align 1

; Function Attrs: mustprogress nounwind uwtable
define linkonce_odr hidden noundef nonnull align 8 dereferenceable(161) ptr @_ZN4llvm13AnalysisUsage14addPreservedIDERc(ptr noundef nonnull align 8 dereferenceable(161) %0, ptr noundef nonnull align 1 dereferenceable(1) %1) #1 comdat align 2 {
  %3 = alloca ptr, align 8
  %4 = alloca ptr, align 8
  store ptr %0, ptr %3, align 8
  store ptr %1, ptr %4, align 8
  %5 = load ptr, ptr %3, align 8
  %6 = getelementptr inbounds nuw %"class.llvm::AnalysisUsage", ptr %5, i32 0, i32 2
  %7 = load ptr, ptr %4, align 8
  call void @_ZN4llvm13AnalysisUsage10pushUniqueERNS_15SmallVectorImplIPKvEES3_(ptr noundef nonnull align 8 dereferenceable(161) %5, ptr noundef nonnull align 8 dereferenceable(16) %6, ptr noundef %7)
  ret ptr %5
}

; Function Attrs: mustprogress nounwind uwtable
define linkonce_odr hidden noundef nonnull align 8 dereferenceable(161) ptr @_ZN4llvm13AnalysisUsage12addPreservedINS_24LiveIntervalsWrapperPassEEERS0_v(ptr noundef nonnull align 8 dereferenceable(161) %0) #1 comdat align 2 {
  %2 = alloca ptr, align 8
  store ptr %0, ptr %2, align 8
  %3 = load ptr, ptr %2, align 8
  %4 = getelementptr inbounds nuw %"class.llvm::AnalysisUsage", ptr %3, i32 0, i32 2
  call void @_ZN4llvm13AnalysisUsage10pushUniqueERNS_15SmallVectorImplIPKvEES3_(ptr noundef nonnull align 8 dereferenceable(161) %3, ptr noundef nonnull align 8 dereferenceable(16) %4, ptr noundef @_ZN4llvm24LiveIntervalsWrapperPass2IDE)
  ret ptr %3
}

; Function Attrs: mustprogress nounwind uwtable
define linkonce_odr hidden noundef nonnull align 8 dereferenceable(161) ptr @_ZN4llvm13AnalysisUsage12addPreservedINS_22SlotIndexesWrapperPassEEERS0_v(ptr noundef nonnull align 8 dereferenceable(161) %0) #1 comdat align 2 {
  %2 = alloca ptr, align 8
  store ptr %0, ptr %2, align 8
  %3 = load ptr, ptr %2, align 8
  %4 = getelementptr inbounds nuw %"class.llvm::AnalysisUsage", ptr %3, i32 0, i32 2
  call void @_ZN4llvm13AnalysisUsage10pushUniqueERNS_15SmallVectorImplIPKvEES3_(ptr noundef nonnull align 8 dereferenceable(161) %3, ptr noundef nonnull align 8 dereferenceable(16) %4, ptr noundef @_ZN4llvm22SlotIndexesWrapperPass2IDE)
  ret ptr %3
}

; Function Attrs: mustprogress nounwind uwtable
define linkonce_odr hidden noundef nonnull align 8 dereferenceable(161) ptr @_ZN4llvm13AnalysisUsage12addPreservedINS_24LiveVariablesWrapperPassEEERS0_v(ptr noundef nonnull align 8 dereferenceable(161) %0) #1 comdat align 2 {
  %2 = alloca ptr, align 8
  store ptr %0, ptr %2, align 8
  %3 = load ptr, ptr %2, align 8
  %4 = getelementptr inbounds nuw %"class.llvm::AnalysisUsage", ptr %3, i32 0, i32 2
  call void @_ZN4llvm13AnalysisUsage10pushUniqueERNS_15SmallVectorImplIPKvEES3_(ptr noundef nonnull align 8 dereferenceable(161) %3, ptr noundef nonnull align 8 dereferenceable(16) %4, ptr noundef @_ZN4llvm24LiveVariablesWrapperPass2IDE)
  ret ptr %3
}

; Function Attrs: mustprogress nounwind uwtable
define linkonce_odr hidden noundef nonnull align 8 dereferenceable(161) ptr @_ZN4llvm13AnalysisUsage18addUsedIfAvailableINS_24LiveVariablesWrapperPassEEERS0_v(ptr noundef nonnull align 8 dereferenceable(161) %0) #1 comdat align 2 {
  %2 = alloca ptr, align 8
  store ptr %0, ptr %2, align 8
  %3 = load ptr, ptr %2, align 8
  %4 = getelementptr inbounds nuw %"class.llvm::AnalysisUsage", ptr %3, i32 0, i32 3
  call void @_ZN4llvm13AnalysisUsage10pushUniqueERNS_15SmallVectorImplIPKvEES3_(ptr noundef nonnull align 8 dereferenceable(161) %3, ptr noundef nonnull align 8 dereferenceable(16) %4, ptr noundef @_ZN4llvm24LiveVariablesWrapperPass2IDE)
  ret ptr %3
}

; Function Attrs: mustprogress nounwind uwtable
define linkonce_odr hidden noundef nonnull align 8 dereferenceable(161) ptr @_ZN4llvm13AnalysisUsage18addUsedIfAvailableINS_20AAResultsWrapperPassEEERS0_v(ptr noundef nonnull align 8 dereferenceable(161) %0) #1 comdat align 2 {
  %2 = alloca ptr, align 8
  store ptr %0, ptr %2, align 8
  %3 = load ptr, ptr %2, align 8
  %4 = getelementptr inbounds nuw %"class.llvm::AnalysisUsage", ptr %3, i32 0, i32 3
  call void @_ZN4llvm13AnalysisUsage10pushUniqueERNS_15SmallVectorImplIPKvEES3_(ptr noundef nonnull align 8 dereferenceable(161) %3, ptr noundef nonnull align 8 dereferenceable(16) %4, ptr noundef @_ZN4llvm20AAResultsWrapperPass2IDE)
  ret ptr %3
}

; Function Attrs: mustprogress nounwind uwtable
define internal void @_ZNK12_GLOBAL__N_131TwoAddressInstructionLegacyPass16getAnalysisUsageERN4llvm13AnalysisUsageE(ptr noundef nonnull align 8 dereferenceable(56) %0, ptr noundef nonnull align 8 dereferenceable(161) %1) unnamed_addr #1 align 2 {
  %3 = alloca ptr, align 8
  %4 = alloca ptr, align 8
  store ptr %0, ptr %3, align 8
  store ptr %1, ptr %4, align 8
  %5 = load ptr, ptr %3, align 8
  %6 = load ptr, ptr %4, align 8
  call void @_ZN4llvm13AnalysisUsage15setPreservesCFGEv(ptr noundef nonnull align 8 dereferenceable(161) %6)
  %7 = load ptr, ptr %4, align 8
  %8 = call noundef nonnull align 8 dereferenceable(161) ptr @_ZN4llvm13AnalysisUsage18addUsedIfAvailableINS_20AAResultsWrapperPassEEERS0_v(ptr noundef nonnull align 8 dereferenceable(161) %7)
  %9 = load ptr, ptr %4, align 8
  %10 = call noundef nonnull align 8 dereferenceable(161) ptr @_ZN4llvm13AnalysisUsage18addUsedIfAvailableINS_24LiveVariablesWrapperPassEEERS0_v(ptr noundef nonnull align 8 dereferenceable(161) %9)
  %11 = load ptr, ptr %4, align 8
  %12 = call noundef nonnull align 8 dereferenceable(161) ptr @_ZN4llvm13AnalysisUsage12addPreservedINS_24LiveVariablesWrapperPassEEERS0_v(ptr noundef nonnull align 8 dereferenceable(161) %11)
  %13 = load ptr, ptr %4, align 8
  %14 = call noundef nonnull align 8 dereferenceable(161) ptr @_ZN4llvm13AnalysisUsage12addPreservedINS_22SlotIndexesWrapperPassEEERS0_v(ptr noundef nonnull align 8 dereferenceable(161) %13)
  %15 = load ptr, ptr %4, align 8
  %16 = call noundef nonnull align 8 dereferenceable(161) ptr @_ZN4llvm13AnalysisUsage12addPreservedINS_24LiveIntervalsWrapperPassEEERS0_v(ptr noundef nonnull align 8 dereferenceable(161) %15)
  %17 = load ptr, ptr %4, align 8
  %18 = load ptr, ptr @_ZN4llvm17MachineLoopInfoIDE, align 8
  %19 = call noundef nonnull align 8 dereferenceable(161) ptr @_ZN4llvm13AnalysisUsage14addPreservedIDERc(ptr noundef nonnull align 8 dereferenceable(161) %17, ptr noundef nonnull align 1 dereferenceable(1) %18)
  %20 = load ptr, ptr %4, align 8
  %21 = load ptr, ptr @_ZN4llvm19MachineDominatorsIDE, align 8
  %22 = call noundef nonnull align 8 dereferenceable(161) ptr @_ZN4llvm13AnalysisUsage14addPreservedIDERc(ptr noundef nonnull align 8 dereferenceable(161) %20, ptr noundef nonnull align 1 dereferenceable(1) %21)
  %23 = load ptr, ptr %4, align 8
  call void @_ZNK4llvm19MachineFunctionPass16getAnalysisUsageERNS_13AnalysisUsageE(ptr noundef nonnull align 8 dereferenceable(56) %5, ptr noundef nonnull align 8 dereferenceable(161) %23)
  ret void
}